# Generated using gdb/testsuite/gdb.python/py-section-script.c from repo
# git://sourceware.org/git/binutils-gdb.git.
	
	.file	"py-section-script.c"
	.text
.Ltext0:
#APP
	.pushsection ".debug_gdb_scripts", "S",%progbits
.byte 1
.asciz "py-section-script.py"
.popsection

	.pushsection ".debug_gdb_scripts", "S",%progbits
.byte 1
.asciz "py-section-script.py"
.popsection

	.pushsection ".debug_gdb_scripts", "S",%progbits
.byte 4
.ascii "gdb.inlined-script\n"
.ascii "class test_cmd (gdb.Command):\n"
.ascii "  def __init__ (self):\n"
.ascii "    super (test_cmd, self).__init__ (\"test-cmd\", gdb.COMMAND_OBSCURE)\n"
.ascii "  def invoke (self, arg, from_tty):\n"
.ascii "    print (\"test-cmd output, arg = %s\" % arg)\n"
.ascii "test_cmd ()\n"
.byte 0
.popsection

	.pushsection ".debug_gdb_scripts", "S",%progbits
.byte 4
.ascii "gdb.inlined-script\n"
.ascii "class test_cmd (gdb.Command):\n"
.ascii "  def __init__ (self):\n"
.ascii "    super (test_cmd, self).__init__ (\"test-cmd\", gdb.COMMAND_OBSCURE)\n"
.ascii "  def invoke (self, arg, from_tty):\n"
.ascii "    print (\"test-cmd output, arg = %s\" % arg)\n"
.ascii "test_cmd ()\n"
.byte 0
.popsection

#NO_APP
	.globl	init_ss
	.type	init_ss, @function
init_ss:
.LFB0:
	.file 1 "py-section-script.c"
	# py-section-script.c:76
	.loc 1 76 0
	.cfi_startproc
# BLOCK 2 seq:0
# PRED: ENTRY (FALLTHRU)
	pushq	%rbp
	.cfi_def_cfa_offset 16
	.cfi_offset 6, -16
	movq	%rsp, %rbp
	.cfi_def_cfa_register 6
	movq	%rdi, -8(%rbp)
	movl	%esi, -12(%rbp)
	movl	%edx, -16(%rbp)
	# py-section-script.c:77
	.loc 1 77 0
	movq	-8(%rbp), %rax
	movl	-12(%rbp), %edx
	movl	%edx, (%rax)
	# py-section-script.c:78
	.loc 1 78 0
	movq	-8(%rbp), %rax
	movl	-16(%rbp), %edx
	movl	%edx, 4(%rax)
	# py-section-script.c:79
	.loc 1 79 0
	nop
	popq	%rbp
	.cfi_def_cfa 7, 8
# SUCC: EXIT [100.0%] 
	ret
	.cfi_endproc
.LFE0:
	.size	init_ss, .-init_ss
	.globl	main
	.type	main, @function
main:
.LFB1:
	# py-section-script.c:83
	.loc 1 83 0
	.cfi_startproc
# BLOCK 2 seq:0
# PRED: ENTRY (FALLTHRU)
	pushq	%rbp
	.cfi_def_cfa_offset 16
	.cfi_offset 6, -16
	movq	%rsp, %rbp
	.cfi_def_cfa_register 6
	subq	$16, %rsp
	# py-section-script.c:86
	.loc 1 86 0
	leaq	-8(%rbp), %rax
	movl	$2, %edx
	movl	$1, %esi
	movq	%rax, %rdi
	call	init_ss
	# py-section-script.c:88
	.loc 1 88 0
	movl	$0, %eax
	# py-section-script.c:89
	.loc 1 89 0
	leave
	.cfi_def_cfa 7, 8
# SUCC: EXIT [100.0%] 
	ret
	.cfi_endproc
.LFE1:
	.size	main, .-main
.Letext0:
	.section	.note.GNU-stack,"",@progbits
